; Function Attrs: mustprogress nounwind uwtable
define void @_ZN6colvar13neuralNetworkD2Ev(ptr noundef nonnull align 8 dereferenceable(1656) initializes((0, 8), (320, 328)) %0) unnamed_addr #1 align 2 personality ptr @__gxx_personality_v0 {
  store ptr getelementptr inbounds nuw inrange(-16, 216) (i8, ptr @_ZTVN6colvar13neuralNetworkE, i64 16), ptr %0, align 8, !tbaa !110
  %2 = getelementptr inbounds nuw i8, ptr %0, i64 320
  store ptr getelementptr inbounds nuw inrange(-16, 48) (i8, ptr @_ZTVN6colvar13neuralNetworkE, i64 248), ptr %2, align 8, !tbaa !110
  %3 = getelementptr inbounds nuw i8, ptr %0, i64 1640
  %4 = load ptr, ptr %3, align 8, !tbaa !106
  %.not.i = icmp eq ptr %4, null
  br i1 %.not.i, label %_ZNSt10unique_ptrIN15neuralnetworkCV20neuralNetworkComputeESt14default_deleteIS1_EED2Ev.exit, label %_ZNKSt14default_deleteIN15neuralnetworkCV20neuralNetworkComputeEEclEPS1_.exit.i

_ZNKSt14default_deleteIN15neuralnetworkCV20neuralNetworkComputeEEclEPS1_.exit.i: ; preds = %1
  tail call void @_ZN15neuralnetworkCV20neuralNetworkComputeD2Ev(ptr noundef nonnull align 8 dereferenceable(120) %4) #24
  tail call void @_ZdlPvm(ptr noundef nonnull %4, i64 noundef 120) #25
  br label %_ZNSt10unique_ptrIN15neuralnetworkCV20neuralNetworkComputeESt14default_deleteIS1_EED2Ev.exit

_ZNSt10unique_ptrIN15neuralnetworkCV20neuralNetworkComputeESt14default_deleteIS1_EED2Ev.exit: ; preds = %1, %_ZNKSt14default_deleteIN15neuralnetworkCV20neuralNetworkComputeEEclEPS1_.exit.i
  store ptr null, ptr %3, align 8, !tbaa !106
  tail call void @_ZN6colvar17linearCombinationD2Ev(ptr noundef nonnull align 8 dereferenceable(1633) %0) #24
  ret void
}